; Function Attrs: nounwind uwtable
define nonnull ptr @l_Std_Time_Month_instDecidableLtOffset___boxed(ptr noundef %0, ptr noundef %1) local_unnamed_addr #0 {
  %3 = ptrtoint ptr %0 to i64
  %4 = and i64 %3, 1
  %.not.i.i.i = icmp eq i64 %4, 0
  %.pre11 = ptrtoint ptr %1 to i64
  %.pre = and i64 %.pre11, 1
  %5 = icmp eq i64 %.pre, 0
  br i1 %.not.i.i.i, label %l_Std_Time_Month_instDecidableLtOffset.exit, label %6, !prof !13

6:                                                ; preds = %2
  br i1 %5, label %l_Std_Time_Month_instDecidableLtOffset.exit.thread15, label %lean_dec.exit5.thread20, !prof !13

l_Std_Time_Month_instDecidableLtOffset.exit.thread15: ; preds = %6
  %7 = tail call zeroext i1 @lean_int_big_lt(ptr noundef %0, ptr noundef %1) #5
  br label %14

lean_dec.exit5.thread20:                          ; preds = %6
  %8 = lshr i64 %3, 1
  %9 = trunc i64 %8 to i32
  %10 = lshr i64 %.pre11, 1
  %11 = trunc i64 %10 to i32
  %12 = icmp slt i32 %9, %11
  br label %lean_dec.exit

l_Std_Time_Month_instDecidableLtOffset.exit:      ; preds = %2
  %13 = tail call zeroext i1 @lean_int_big_lt(ptr noundef %0, ptr noundef %1) #5
  br i1 %5, label %14, label %lean_dec.exit5.thread

14:                                               ; preds = %l_Std_Time_Month_instDecidableLtOffset.exit.thread15, %l_Std_Time_Month_instDecidableLtOffset.exit
  %15 = phi i1 [ %7, %l_Std_Time_Month_instDecidableLtOffset.exit.thread15 ], [ %13, %l_Std_Time_Month_instDecidableLtOffset.exit ]
  %16 = load i32, ptr %1, align 4, !tbaa !5
  %17 = icmp sgt i32 %16, 1
  br i1 %17, label %18, label %20, !prof !10

18:                                               ; preds = %14
  %19 = add nsw i32 %16, -1
  store i32 %19, ptr %1, align 4, !tbaa !5
  br label %lean_dec.exit5

20:                                               ; preds = %14
  %.not.i = icmp eq i32 %16, 0
  br i1 %.not.i, label %lean_dec.exit5, label %21

21:                                               ; preds = %20
  tail call void @lean_dec_ref_cold(ptr noundef nonnull %1) #5
  br label %lean_dec.exit5

lean_dec.exit5:                                   ; preds = %21, %20, %18
  br i1 %.not.i.i.i, label %lean_dec.exit5.thread, label %lean_dec.exit

lean_dec.exit5.thread:                            ; preds = %l_Std_Time_Month_instDecidableLtOffset.exit, %lean_dec.exit5
  %.0.i.i.i1419 = phi i1 [ %15, %lean_dec.exit5 ], [ %13, %l_Std_Time_Month_instDecidableLtOffset.exit ]
  %22 = load i32, ptr %0, align 4, !tbaa !5
  %23 = icmp sgt i32 %22, 1
  br i1 %23, label %24, label %26, !prof !10

24:                                               ; preds = %lean_dec.exit5.thread
  %25 = add nsw i32 %22, -1
  store i32 %25, ptr %0, align 4, !tbaa !5
  br label %lean_dec.exit

26:                                               ; preds = %lean_dec.exit5.thread
  %.not.i6 = icmp eq i32 %22, 0
  br i1 %.not.i6, label %lean_dec.exit, label %27

27:                                               ; preds = %26
  tail call void @lean_dec_ref_cold(ptr noundef nonnull %0) #5
  br label %lean_dec.exit

lean_dec.exit:                                    ; preds = %lean_dec.exit5.thread20, %27, %26, %24, %lean_dec.exit5
  %.0.i.i.i1418 = phi i1 [ %.0.i.i.i1419, %27 ], [ %.0.i.i.i1419, %26 ], [ %.0.i.i.i1419, %24 ], [ %15, %lean_dec.exit5 ], [ %12, %lean_dec.exit5.thread20 ]
  %28 = select i1 %.0.i.i.i1418, ptr inttoptr (i64 3 to ptr), ptr inttoptr (i64 1 to ptr)
  ret ptr %28
}